target datalayout = "e-m:e-p270:32:32-p271:32:32-p272:64:64-i64:64-i128:128-f80:128-n8:16:32:64-S128"
target triple = "x86_64-pc-linux-gnu"

%struct.Curl_ssl_scache = type { ptr, i64, i32, i64 }
%struct.Curl_ssl_scache_peer = type { ptr, ptr, ptr, ptr, %struct.Curl_llist, ptr, ptr, [32 x i8], [32 x i8], i64, i64, i8 }
%struct.Curl_llist = type { ptr, ptr, ptr, i64 }

@Curl_cfree = external global ptr, align 8

; Function Attrs: nounwind uwtable
define internal void @cf_ssl_scache_clear_peer(ptr noundef %0) #0 {
  %2 = alloca ptr, align 8
  store ptr %0, ptr %2, align 8, !tbaa !33
  %3 = load ptr, ptr %2, align 8, !tbaa !33
  %4 = getelementptr inbounds nuw %struct.Curl_ssl_scache_peer, ptr %3, i32 0, i32 4
  call void @Curl_llist_destroy(ptr noundef %4, ptr noundef null)
  %5 = load ptr, ptr %2, align 8, !tbaa !33
  %6 = getelementptr inbounds nuw %struct.Curl_ssl_scache_peer, ptr %5, i32 0, i32 5
  %7 = load ptr, ptr %6, align 8, !tbaa !46
  %8 = icmp ne ptr %7, null
  br i1 %8, label %9, label %26

9:                                                ; preds = %1
  br label %10

10:                                               ; preds = %9
  br label %11

11:                                               ; preds = %10
  %12 = load ptr, ptr %2, align 8, !tbaa !33
  %13 = getelementptr inbounds nuw %struct.Curl_ssl_scache_peer, ptr %12, i32 0, i32 6
  %14 = load ptr, ptr %13, align 8, !tbaa !47
  %15 = icmp ne ptr %14, null
  br i1 %15, label %16, label %23

16:                                               ; preds = %11
  %17 = load ptr, ptr %2, align 8, !tbaa !33
  %18 = getelementptr inbounds nuw %struct.Curl_ssl_scache_peer, ptr %17, i32 0, i32 6
  %19 = load ptr, ptr %18, align 8, !tbaa !47
  %20 = load ptr, ptr %2, align 8, !tbaa !33
  %21 = getelementptr inbounds nuw %struct.Curl_ssl_scache_peer, ptr %20, i32 0, i32 5
  %22 = load ptr, ptr %21, align 8, !tbaa !46
  call void %19(ptr noundef %22)
  br label %23

23:                                               ; preds = %16, %11
  %24 = load ptr, ptr %2, align 8, !tbaa !33
  %25 = getelementptr inbounds nuw %struct.Curl_ssl_scache_peer, ptr %24, i32 0, i32 5
  store ptr null, ptr %25, align 8, !tbaa !46
  br label %26

26:                                               ; preds = %23, %1
  %27 = load ptr, ptr %2, align 8, !tbaa !33
  %28 = getelementptr inbounds nuw %struct.Curl_ssl_scache_peer, ptr %27, i32 0, i32 6
  store ptr null, ptr %28, align 8, !tbaa !47
  br label %29

29:                                               ; preds = %26
  %30 = load ptr, ptr @Curl_cfree, align 8, !tbaa !14
  %31 = load ptr, ptr %2, align 8, !tbaa !33
  %32 = getelementptr inbounds nuw %struct.Curl_ssl_scache_peer, ptr %31, i32 0, i32 1
  %33 = load ptr, ptr %32, align 8, !tbaa !48
  call void %30(ptr noundef %33)
  %34 = load ptr, ptr %2, align 8, !tbaa !33
  %35 = getelementptr inbounds nuw %struct.Curl_ssl_scache_peer, ptr %34, i32 0, i32 1
  store ptr null, ptr %35, align 8, !tbaa !48
  br label %36

36:                                               ; preds = %29
  br label %37

37:                                               ; preds = %36
  %38 = load ptr, ptr @Curl_cfree, align 8, !tbaa !14
  %39 = load ptr, ptr %2, align 8, !tbaa !33
  %40 = getelementptr inbounds nuw %struct.Curl_ssl_scache_peer, ptr %39, i32 0, i32 2
  %41 = load ptr, ptr %40, align 8, !tbaa !49
  call void %38(ptr noundef %41)
  %42 = load ptr, ptr %2, align 8, !tbaa !33
  %43 = getelementptr inbounds nuw %struct.Curl_ssl_scache_peer, ptr %42, i32 0, i32 2
  store ptr null, ptr %43, align 8, !tbaa !49
  br label %44

44:                                               ; preds = %37
  br label %45

45:                                               ; preds = %44
  %46 = load ptr, ptr @Curl_cfree, align 8, !tbaa !14
  %47 = load ptr, ptr %2, align 8, !tbaa !33
  %48 = getelementptr inbounds nuw %struct.Curl_ssl_scache_peer, ptr %47, i32 0, i32 3
  %49 = load ptr, ptr %48, align 8, !tbaa !50
  call void %46(ptr noundef %49)
  %50 = load ptr, ptr %2, align 8, !tbaa !33
  %51 = getelementptr inbounds nuw %struct.Curl_ssl_scache_peer, ptr %50, i32 0, i32 3
  store ptr null, ptr %51, align 8, !tbaa !50
  br label %52

52:                                               ; preds = %45
  br label %53

53:                                               ; preds = %52
  %54 = load ptr, ptr @Curl_cfree, align 8, !tbaa !14
  %55 = load ptr, ptr %2, align 8, !tbaa !33
  %56 = getelementptr inbounds nuw %struct.Curl_ssl_scache_peer, ptr %55, i32 0, i32 0
  %57 = load ptr, ptr %56, align 8, !tbaa !51
  call void %54(ptr noundef %57)
  %58 = load ptr, ptr %2, align 8, !tbaa !33
  %59 = getelementptr inbounds nuw %struct.Curl_ssl_scache_peer, ptr %58, i32 0, i32 0
  store ptr null, ptr %59, align 8, !tbaa !51
  br label %60

60:                                               ; preds = %53
  %61 = load ptr, ptr %2, align 8, !tbaa !33
  %62 = getelementptr inbounds nuw %struct.Curl_ssl_scache_peer, ptr %61, i32 0, i32 10
  store i64 0, ptr %62, align 8, !tbaa !52
  %63 = load ptr, ptr %2, align 8, !tbaa !33
  %64 = getelementptr inbounds nuw %struct.Curl_ssl_scache_peer, ptr %63, i32 0, i32 11
  %65 = load i8, ptr %64, align 8
  %66 = and i8 %65, -2
  %67 = or i8 %66, 0
  store i8 %67, ptr %64, align 8
  ret void
}

; Function Attrs: nounwind uwtable
define hidden void @Curl_ssl_scache_destroy(ptr noundef %0) #0 {
  %2 = alloca ptr, align 8
  %3 = alloca i64, align 8
  store ptr %0, ptr %2, align 8, !tbaa !31
  %4 = load ptr, ptr %2, align 8, !tbaa !31
  %5 = icmp ne ptr %4, null
  br i1 %5, label %6, label %29

6:                                                ; preds = %1
  call void @llvm.lifetime.start.p0(i64 8, ptr %3) #6
  store i64 0, ptr %3, align 8, !tbaa !8
  br label %7

7:                                                ; preds = %19, %6
  %8 = load i64, ptr %3, align 8, !tbaa !8
  %9 = load ptr, ptr %2, align 8, !tbaa !31
  %10 = getelementptr inbounds nuw %struct.Curl_ssl_scache, ptr %9, i32 0, i32 1
  %11 = load i64, ptr %10, align 8, !tbaa !37
  %12 = icmp ult i64 %8, %11
  br i1 %12, label %13, label %22

13:                                               ; preds = %7
  %14 = load ptr, ptr %2, align 8, !tbaa !31
  %15 = getelementptr inbounds nuw %struct.Curl_ssl_scache, ptr %14, i32 0, i32 0
  %16 = load ptr, ptr %15, align 8, !tbaa !38
  %17 = load i64, ptr %3, align 8, !tbaa !8
  %18 = getelementptr inbounds nuw %struct.Curl_ssl_scache_peer, ptr %16, i64 %17
  call void @cf_ssl_scache_clear_peer(ptr noundef %18)
  br label %19

19:                                               ; preds = %13
  %20 = load i64, ptr %3, align 8, !tbaa !8
  %21 = add i64 %20, 1
  store i64 %21, ptr %3, align 8, !tbaa !8
  br label %7, !llvm.loop !45

22:                                               ; preds = %7
  %23 = load ptr, ptr @Curl_cfree, align 8, !tbaa !14
  %24 = load ptr, ptr %2, align 8, !tbaa !31
  %25 = getelementptr inbounds nuw %struct.Curl_ssl_scache, ptr %24, i32 0, i32 0
  %26 = load ptr, ptr %25, align 8, !tbaa !38
  call void %23(ptr noundef %26)
  %27 = load ptr, ptr @Curl_cfree, align 8, !tbaa !14
  %28 = load ptr, ptr %2, align 8, !tbaa !31
  call void %27(ptr noundef %28)
  call void @llvm.lifetime.end.p0(i64 8, ptr %3) #6
  br label %29

29:                                               ; preds = %22, %1
  ret void
}