; Function Attrs: nounwind uwtable
define hidden void @Curl_ssl_scache_destroy(ptr noundef %0) local_unnamed_addr #0 {
  %.not = icmp eq ptr %0, null
  br i1 %.not, label %36, label %.preheader

.preheader:                                       ; preds = %1
  %2 = getelementptr inbounds nuw i8, ptr %0, i64 8
  %3 = load i64, ptr %2, align 8, !tbaa !29
  %.not9 = icmp eq i64 %3, 0
  br i1 %.not9, label %._crit_edge, label %.lr.ph

.lr.ph:                                           ; preds = %.preheader, %cf_ssl_scache_clear_peer.exit
  %.08 = phi i64 [ %30, %cf_ssl_scache_clear_peer.exit ], [ 0, %.preheader ]
  %4 = load ptr, ptr %0, align 8, !tbaa !30
  %5 = getelementptr inbounds nuw %struct.Curl_ssl_scache_peer, ptr %4, i64 %.08
  %6 = getelementptr inbounds nuw i8, ptr %5, i64 32
  tail call void @Curl_llist_destroy(ptr noundef nonnull %6, ptr noundef null) #9
  %7 = getelementptr inbounds nuw i8, ptr %5, i64 64
  %8 = load ptr, ptr %7, align 8, !tbaa !37
  %.not.i = icmp eq ptr %8, null
  br i1 %.not.i, label %cf_ssl_scache_clear_peer.exit, label %9

9:                                                ; preds = %.lr.ph
  %10 = getelementptr inbounds nuw i8, ptr %5, i64 72
  %11 = load ptr, ptr %10, align 8, !tbaa !38
  %.not18.i = icmp eq ptr %11, null
  br i1 %.not18.i, label %13, label %12

12:                                               ; preds = %9
  tail call void %11(ptr noundef nonnull %8) #9
  br label %13

13:                                               ; preds = %12, %9
  store ptr null, ptr %7, align 8, !tbaa !37
  br label %cf_ssl_scache_clear_peer.exit

cf_ssl_scache_clear_peer.exit:                    ; preds = %.lr.ph, %13
  %14 = getelementptr inbounds nuw i8, ptr %5, i64 72
  store ptr null, ptr %14, align 8, !tbaa !38
  %15 = load ptr, ptr @Curl_cfree, align 8, !tbaa !3
  %16 = getelementptr inbounds nuw i8, ptr %5, i64 8
  %17 = load ptr, ptr %16, align 8, !tbaa !39
  tail call void %15(ptr noundef %17) #9
  store ptr null, ptr %16, align 8, !tbaa !39
  %18 = load ptr, ptr @Curl_cfree, align 8, !tbaa !3
  %19 = getelementptr inbounds nuw i8, ptr %5, i64 16
  %20 = load ptr, ptr %19, align 8, !tbaa !40
  tail call void %18(ptr noundef %20) #9
  store ptr null, ptr %19, align 8, !tbaa !40
  %21 = load ptr, ptr @Curl_cfree, align 8, !tbaa !3
  %22 = getelementptr inbounds nuw i8, ptr %5, i64 24
  %23 = load ptr, ptr %22, align 8, !tbaa !41
  tail call void %21(ptr noundef %23) #9
  store ptr null, ptr %22, align 8, !tbaa !41
  %24 = load ptr, ptr @Curl_cfree, align 8, !tbaa !3
  %25 = load ptr, ptr %5, align 8, !tbaa !42
  tail call void %24(ptr noundef %25) #9
  store ptr null, ptr %5, align 8, !tbaa !42
  %26 = getelementptr inbounds nuw i8, ptr %5, i64 152
  store i64 0, ptr %26, align 8, !tbaa !43
  %27 = getelementptr inbounds nuw i8, ptr %5, i64 160
  %28 = load i8, ptr %27, align 8
  %29 = and i8 %28, -2
  store i8 %29, ptr %27, align 8
  %30 = add nuw i64 %.08, 1
  %31 = load i64, ptr %2, align 8, !tbaa !29
  %32 = icmp ult i64 %30, %31
  br i1 %32, label %.lr.ph, label %._crit_edge, !llvm.loop !44

._crit_edge:                                      ; preds = %cf_ssl_scache_clear_peer.exit, %.preheader
  %33 = load ptr, ptr @Curl_cfree, align 8, !tbaa !3
  %34 = load ptr, ptr %0, align 8, !tbaa !30
  tail call void %33(ptr noundef %34) #9
  %35 = load ptr, ptr @Curl_cfree, align 8, !tbaa !3
  tail call void %35(ptr noundef nonnull %0) #9
  br label %36

36:                                               ; preds = %._crit_edge, %1
  ret void
}